; Function Attrs: nounwind uwtable
define noalias noundef ptr @Res6_FindSupport(ptr noundef readonly captures(none) %0, i32 noundef %1) local_unnamed_addr #0 {
  %3 = tail call noalias dereferenceable_or_null(16) ptr @malloc(i64 noundef 16) #20
  %4 = getelementptr inbounds nuw i8, ptr %3, i64 4
  store i32 0, ptr %4, align 4, !tbaa !25
  store i32 16, ptr %3, align 8, !tbaa !28
  %5 = tail call noalias dereferenceable_or_null(64) ptr @malloc(i64 noundef 64) #20
  %6 = getelementptr inbounds nuw i8, ptr %3, i64 8
  store ptr %5, ptr %6, align 8, !tbaa !29
  %7 = getelementptr i8, ptr %0, i64 4
  %.val13 = load i32, ptr %7, align 4, !tbaa !25
  %8 = icmp sgt i32 %.val13, 0
  br i1 %8, label %.lr.ph, label %.critedge

.lr.ph:                                           ; preds = %2
  %9 = getelementptr i8, ptr %0, i64 8
  %10 = shl nsw i32 %1, 1
  br label %11

11:                                               ; preds = %.lr.ph, %Vec_IntPushUnique.exit
  %.val19 = phi i32 [ %.val13, %.lr.ph ], [ %.val, %Vec_IntPushUnique.exit ]
  %12 = phi ptr [ %5, %.lr.ph ], [ %.pre.i.i17, %Vec_IntPushUnique.exit ]
  %13 = phi ptr [ %5, %.lr.ph ], [ %47, %Vec_IntPushUnique.exit ]
  %indvars.iv = phi i64 [ 0, %.lr.ph ], [ %indvars.iv.next, %Vec_IntPushUnique.exit ]
  %.val12 = load ptr, ptr %9, align 8, !tbaa !29
  %14 = getelementptr inbounds nuw i32, ptr %.val12, i64 %indvars.iv
  %15 = load i32, ptr %14, align 4, !tbaa !3
  %16 = icmp sgt i32 %15, 1
  %17 = icmp slt i32 %15, %10
  %or.cond = select i1 %16, i1 %17, i1 false
  br i1 %or.cond, label %18, label %Vec_IntPushUnique.exit

18:                                               ; preds = %11
  %19 = lshr i32 %15, 1
  %20 = load i32, ptr %4, align 4, !tbaa !25
  %21 = icmp sgt i32 %20, 0
  br i1 %21, label %.lr.ph.i, label %._crit_edge.i

.lr.ph.i:                                         ; preds = %18
  %wide.trip.count.i = zext nneg i32 %20 to i64
  br label %23

22:                                               ; preds = %23
  %indvars.iv.next.i = add nuw nsw i64 %indvars.iv.i, 1
  %exitcond.not.i = icmp eq i64 %indvars.iv.next.i, %wide.trip.count.i
  br i1 %exitcond.not.i, label %._crit_edge.i, label %23, !llvm.loop !69

23:                                               ; preds = %22, %.lr.ph.i
  %indvars.iv.i = phi i64 [ 0, %.lr.ph.i ], [ %indvars.iv.next.i, %22 ]
  %24 = getelementptr inbounds nuw i32, ptr %13, i64 %indvars.iv.i
  %25 = load i32, ptr %24, align 4, !tbaa !3
  %26 = icmp eq i32 %25, %19
  br i1 %26, label %Vec_IntPushUnique.exit, label %22

._crit_edge.i:                                    ; preds = %22, %18
  %27 = load i32, ptr %3, align 8, !tbaa !28
  %28 = icmp eq i32 %20, %27
  br i1 %28, label %29, label %Vec_IntPush.exit.i

29:                                               ; preds = %._crit_edge.i
  %30 = icmp slt i32 %20, 16
  br i1 %30, label %31, label %36

31:                                               ; preds = %29
  %.not9.i.i.i = icmp eq ptr %12, null
  br i1 %.not9.i.i.i, label %34, label %32

32:                                               ; preds = %31
  %33 = tail call dereferenceable_or_null(64) ptr @realloc(ptr noundef nonnull %12, i64 noundef 64) #23
  br label %Vec_IntPush.exit.i.sink.split

34:                                               ; preds = %31
  %35 = tail call noalias dereferenceable_or_null(64) ptr @malloc(i64 noundef 64) #20
  br label %Vec_IntPush.exit.i.sink.split

36:                                               ; preds = %29
  %37 = shl nuw nsw i32 %20, 1
  %.not9.i9.i.i = icmp eq ptr %12, null
  %38 = zext nneg i32 %37 to i64
  %39 = shl nuw nsw i64 %38, 2
  br i1 %.not9.i9.i.i, label %42, label %40

40:                                               ; preds = %36
  %41 = tail call ptr @realloc(ptr noundef nonnull %12, i64 noundef %39) #23
  br label %Vec_IntPush.exit.i.sink.split

42:                                               ; preds = %36
  %43 = tail call noalias ptr @malloc(i64 noundef %39) #20
  br label %Vec_IntPush.exit.i.sink.split

Vec_IntPush.exit.i.sink.split:                    ; preds = %40, %42, %32, %34
  %.sink21 = phi ptr [ %33, %32 ], [ %35, %34 ], [ %41, %40 ], [ %43, %42 ]
  %.sink = phi i32 [ 16, %32 ], [ 16, %34 ], [ %37, %40 ], [ %37, %42 ]
  store ptr %.sink21, ptr %6, align 8, !tbaa !29
  store i32 %.sink, ptr %3, align 8, !tbaa !28
  br label %Vec_IntPush.exit.i

Vec_IntPush.exit.i:                               ; preds = %Vec_IntPush.exit.i.sink.split, %._crit_edge.i
  %.pre.i.i18 = phi ptr [ %12, %._crit_edge.i ], [ %.sink21, %Vec_IntPush.exit.i.sink.split ]
  %44 = add nsw i32 %20, 1
  store i32 %44, ptr %4, align 4, !tbaa !25
  %45 = sext i32 %20 to i64
  %46 = getelementptr inbounds i32, ptr %.pre.i.i18, i64 %45
  store i32 %19, ptr %46, align 4, !tbaa !3
  %.val.pre = load i32, ptr %7, align 4, !tbaa !25
  br label %Vec_IntPushUnique.exit

Vec_IntPushUnique.exit:                           ; preds = %23, %Vec_IntPush.exit.i, %11
  %.val = phi i32 [ %.val.pre, %Vec_IntPush.exit.i ], [ %.val19, %11 ], [ %.val19, %23 ]
  %.pre.i.i17 = phi ptr [ %.pre.i.i18, %Vec_IntPush.exit.i ], [ %12, %11 ], [ %12, %23 ]
  %47 = phi ptr [ %.pre.i.i18, %Vec_IntPush.exit.i ], [ %13, %11 ], [ %13, %23 ]
  %indvars.iv.next = add nuw nsw i64 %indvars.iv, 1
  %48 = sext i32 %.val to i64
  %49 = icmp slt i64 %indvars.iv.next, %48
  br i1 %49, label %11, label %.critedge, !llvm.loop !70

.critedge:                                        ; preds = %Vec_IntPushUnique.exit, %2
  ret ptr %3
}